; Function Attrs: mustprogress nofree norecurse nosync nounwind willreturn memory(readwrite, inaccessiblemem: none) uwtable
define dso_local range(i32 -30, 2) i32 @onig_get_callout_data_by_callout_args(ptr noundef readonly captures(none) %0, i32 noundef %1, i32 noundef %2, ptr noundef writeonly captures(address_is_null) %3, ptr noundef writeonly captures(address_is_null) %4) local_unnamed_addr #13 {
  %6 = icmp slt i32 %1, 1
  br i1 %6, label %onig_get_callout_data.exit, label %7

7:                                                ; preds = %5
  %8 = getelementptr inbounds nuw i8, ptr %0, i64 72
  %9 = load ptr, ptr %8, align 8, !tbaa !43
  %10 = getelementptr inbounds nuw i8, ptr %9, i64 72
  %11 = load ptr, ptr %10, align 8, !tbaa !48
  %12 = getelementptr inbounds nuw i8, ptr %11, i64 56
  %13 = load ptr, ptr %12, align 8, !tbaa !41
  %14 = zext nneg i32 %1 to i64
  %15 = getelementptr %struct.CalloutData, ptr %13, i64 %14
  %16 = getelementptr i8, ptr %15, i64 -128
  %17 = load i32, ptr %16, align 8, !tbaa !53
  %18 = getelementptr inbounds nuw i8, ptr %11, i64 48
  %19 = load i32, ptr %18, align 8, !tbaa !40
  %.not.i = icmp eq i32 %17, %19
  br i1 %.not.i, label %22, label %20

20:                                               ; preds = %7
  tail call void @llvm.memset.p0.i64(ptr noundef nonnull align 8 dereferenceable(128) %16, i8 0, i64 128, i1 false)
  %21 = load i32, ptr %18, align 8, !tbaa !40
  store i32 %21, ptr %16, align 8, !tbaa !53
  br label %22

22:                                               ; preds = %20, %7
  %23 = getelementptr i8, ptr %15, i64 -120
  %24 = sext i32 %2 to i64
  %25 = getelementptr inbounds [5 x %struct.anon], ptr %23, i64 0, i64 %24
  %26 = load i32, ptr %25, align 8, !tbaa !53
  %.not21.i = icmp eq ptr %3, null
  br i1 %.not21.i, label %28, label %27

27:                                               ; preds = %22
  store i32 %26, ptr %3, align 4, !tbaa !24
  br label %28

28:                                               ; preds = %27, %22
  %.not22.i = icmp eq ptr %4, null
  br i1 %.not22.i, label %31, label %29

29:                                               ; preds = %28
  %30 = getelementptr inbounds nuw i8, ptr %25, i64 8
  tail call void @llvm.memcpy.p0.p0.i64(ptr noundef nonnull align 8 dereferenceable(16) %4, ptr noundef nonnull align 8 dereferenceable(16) %30, i64 16, i1 false), !tbaa.struct !55
  br label %31

31:                                               ; preds = %29, %28
  %32 = icmp eq i32 %26, 0
  %33 = zext i1 %32 to i32
  br label %onig_get_callout_data.exit

onig_get_callout_data.exit:                       ; preds = %5, %31
  %.0.i = phi i32 [ %33, %31 ], [ -30, %5 ]
  ret i32 %.0.i
}